; Function Attrs: mustprogress uwtable
define void @_ZN23LBMLBTRMTransportDialog20resetReceiversDetailEv(ptr nocapture noundef nonnull align 8 dereferenceable(96) %0) local_unnamed_addr #0 align 2 personality ptr @__gxx_personality_v0 {
  %2 = alloca %class.QString, align 16
  %3 = alloca %class.QString, align 16
  %4 = getelementptr inbounds i8, ptr %0, i64 40
  br label %5

5:                                                ; preds = %5, %1
  %6 = load ptr, ptr %4, align 8
  %7 = getelementptr inbounds i8, ptr %6, i64 432
  %8 = load ptr, ptr %7, align 8
  %9 = tail call noundef ptr @_ZN11QTreeWidget16takeTopLevelItemEi(ptr noundef nonnull align 8 dereferenceable(40) %8, i32 noundef 0)
  %.not = icmp eq ptr %9, null
  br i1 %.not, label %10, label %5, !llvm.loop !61

10:                                               ; preds = %5
  %11 = load ptr, ptr %4, align 8
  %12 = getelementptr inbounds i8, ptr %11, i64 416
  %13 = load ptr, ptr %12, align 8
  call void @llvm.lifetime.start.p0(i64 24, ptr nonnull %2)
  call void @_ZN7QString8fromUtf8E14QByteArrayView(ptr dead_on_unwind nonnull writable sret(%class.QString) align 8 %2, i64 1, ptr nonnull @.str)
  %14 = load <2 x ptr>, ptr %2, align 16
  store <2 x ptr> %14, ptr %3, align 16
  %15 = getelementptr inbounds i8, ptr %3, i64 16
  %16 = getelementptr inbounds i8, ptr %2, i64 16
  %17 = load i64, ptr %16, align 16
  store i64 %17, ptr %15, align 16
  call void @llvm.lifetime.end.p0(i64 24, ptr nonnull %2)
  invoke void @_ZN6QLabel7setTextERK7QString(ptr noundef nonnull align 8 dereferenceable(40) %13, ptr noundef nonnull align 8 dereferenceable(24) %3)
          to label %18 unwind label %24

18:                                               ; preds = %10
  %19 = load ptr, ptr %3, align 16
  %.not.i.i.i = icmp eq ptr %19, null
  br i1 %.not.i.i.i, label %_ZN7QStringD2Ev.exit, label %_ZN17QArrayDataPointerIDsE5derefEv.exit.i.i

_ZN17QArrayDataPointerIDsE5derefEv.exit.i.i:      ; preds = %18
  %20 = atomicrmw sub ptr %19, i32 1 seq_cst, align 4
  %.not.i.i = icmp eq i32 %20, 1
  br i1 %.not.i.i, label %21, label %_ZN7QStringD2Ev.exit

21:                                               ; preds = %_ZN17QArrayDataPointerIDsE5derefEv.exit.i.i
  %22 = load ptr, ptr %3, align 16
  call void @_ZN10QArrayData10deallocateEPS_xx(ptr noundef %22, i64 noundef 2, i64 noundef 8) #17
  br label %_ZN7QStringD2Ev.exit

_ZN7QStringD2Ev.exit:                             ; preds = %18, %_ZN17QArrayDataPointerIDsE5derefEv.exit.i.i, %21
  %23 = getelementptr inbounds i8, ptr %0, i64 72
  store ptr null, ptr %23, align 8
  ret void

24:                                               ; preds = %10
  %25 = landingpad { ptr, i32 }
          cleanup
  %26 = load ptr, ptr %3, align 16
  %.not.i.i.i2 = icmp eq ptr %26, null
  br i1 %.not.i.i.i2, label %_ZN7QStringD2Ev.exit5, label %_ZN17QArrayDataPointerIDsE5derefEv.exit.i.i3

_ZN17QArrayDataPointerIDsE5derefEv.exit.i.i3:     ; preds = %24
  %27 = atomicrmw sub ptr %26, i32 1 seq_cst, align 4
  %.not.i.i4 = icmp eq i32 %27, 1
  br i1 %.not.i.i4, label %28, label %_ZN7QStringD2Ev.exit5

28:                                               ; preds = %_ZN17QArrayDataPointerIDsE5derefEv.exit.i.i3
  %29 = load ptr, ptr %3, align 16
  call void @_ZN10QArrayData10deallocateEPS_xx(ptr noundef %29, i64 noundef 2, i64 noundef 8) #17
  br label %_ZN7QStringD2Ev.exit5

_ZN7QStringD2Ev.exit5:                            ; preds = %24, %_ZN17QArrayDataPointerIDsE5derefEv.exit.i.i3, %28
  resume { ptr, i32 } %25
}